LIBRARY wincorlib.dll

EXPORTS
?<Dispose>@Exception@Platform@@U$AAAXXZ
?<Dispose>@String@Platform@@U$AAAXXZ
?<Dispose>@Type@Platform@@U$AAAXXZ
??0AccessDeniedException@Platform@@Q$AAA@P$AAVString@1@@Z
??0AccessDeniedException@Platform@@Q$AAA@XZ
??0Attribute@Metadata@Platform@@Q$AAA@XZ
??0Boolean@Platform@@QAA@_N@Z
??0ChangedStateException@Platform@@Q$AAA@P$AAVString@1@@Z
??0ChangedStateException@Platform@@Q$AAA@XZ
??0char16@default@@QAA@_W@Z
??0ClassNotRegisteredException@Platform@@Q$AAA@P$AAVString@1@@Z
??0ClassNotRegisteredException@Platform@@Q$AAA@XZ
??0COMException@Platform@@Q$AAA@H@Z
??0COMException@Platform@@Q$AAA@HP$AAVString@1@@Z
??0Delegate@Platform@@Q$AAA@XZ
??0DisconnectedException@Platform@@Q$AAA@P$AAVString@1@@Z
??0DisconnectedException@Platform@@Q$AAA@XZ
??0Enum@Platform@@Q$AAA@XZ
??0Exception@Platform@@Q$AAA@H@Z
??0Exception@Platform@@Q$AAA@HP$AAVString@1@@Z
??0FailureException@Platform@@Q$AAA@P$AAVString@1@@Z
??0FailureException@Platform@@Q$AAA@XZ
??0float32@default@@QAA@M@Z
??0float64@default@@QAA@N@Z
??0GridLength@Xaml@UI@Windows@@QAA@NW4GridUnitType@123@@Z
??0int16@default@@QAA@F@Z
??0int32@default@@QAA@H@Z
??0int64@default@@QAA@_J@Z
??0int8@default@@QAA@C@Z
??0IntPtr@Platform@@QAA@H@Z
??0IntPtr@Platform@@QAA@PAX@Z
??0InvalidArgumentException@Platform@@Q$AAA@P$AAVString@1@@Z
??0InvalidArgumentException@Platform@@Q$AAA@XZ
??0InvalidCastException@Platform@@Q$AAA@P$AAVString@1@@Z
??0InvalidCastException@Platform@@Q$AAA@XZ
??0MTAThreadAttribute@Platform@@Q$AAA@XZ
??0NotImplementedException@Platform@@Q$AAA@P$AAVString@1@@Z
??0NotImplementedException@Platform@@Q$AAA@XZ
??0NullReferenceException@Platform@@Q$AAA@P$AAVString@1@@Z
??0NullReferenceException@Platform@@Q$AAA@XZ
??0Object@Platform@@Q$AAA@XZ
??0ObjectDisposedException@Platform@@Q$AAA@P$AAVString@1@@Z
??0ObjectDisposedException@Platform@@Q$AAA@XZ
??0OnePhaseConstructedAttribute@CompilerServices@Runtime@Platform@@Q$AAA@XZ
??0OperationCanceledException@Platform@@Q$AAA@P$AAVString@1@@Z
??0OperationCanceledException@Platform@@Q$AAA@XZ
??0OutOfBoundsException@Platform@@Q$AAA@P$AAVString@1@@Z
??0OutOfBoundsException@Platform@@Q$AAA@XZ
??0OutOfMemoryException@Platform@@Q$AAA@P$AAVString@1@@Z
??0OutOfMemoryException@Platform@@Q$AAA@XZ
??0Rect@Foundation@Windows@@QAA@VPoint@12@0@Z
??0Rect@Foundation@Windows@@QAA@VPoint@12@VSize@12@@Z
??0RepeatBehavior@Animation@Media@Xaml@UI@Windows@@QAA@N@Z
??0SizeT@Platform@@QAA@H@Z
??0SizeT@Platform@@QAA@PAX@Z
??0STAThreadAttribute@Platform@@Q$AAA@XZ
??0Type@Platform@@Q$AAA@P$AAVObject@1@@Z
??0Type@Platform@@Q$AAA@VIntPtr@1@@Z
??0Type@Platform@@Q$AAA@VTypeName@Interop@Xaml@UI@Windows@@@Z
??0uint16@default@@QAA@G@Z
??0uint32@default@@QAA@I@Z
??0uint64@default@@QAA@_K@Z
??0uint8@default@@QAA@E@Z
??0ValueType@Platform@@Q$AAA@XZ
??0WrongThreadException@Platform@@Q$AAA@P$AAVString@1@@Z
??0WrongThreadException@Platform@@Q$AAA@XZ
??BIntPtr@Platform@@SA?AV01@H@Z
??BIntPtr@Platform@@SA?AV01@PAX@Z
??BIntPtr@Platform@@SAPAXV01@@Z
??BType@Platform@@SA?AVTypeName@Interop@Xaml@UI@Windows@@P$AAV01@@Z
??BType@Platform@@SAP$AAV01@VTypeName@Interop@Xaml@UI@Windows@@@Z
??DMatrix3D@Media3D@Media@Xaml@UI@Windows@@SA?AV012345@V012345@0@Z
??GDuration@Xaml@UI@Windows@@SA?AV0123@V0123@0@Z
??HDuration@Xaml@UI@Windows@@SA?AV0123@V0123@0@Z
??MDuration@Xaml@UI@Windows@@SA_NV0123@0@Z
??NDuration@Xaml@UI@Windows@@SA_NV0123@0@Z
??ODuration@Xaml@UI@Windows@@SA_NV0123@0@Z
??PDuration@Xaml@UI@Windows@@SA_NV0123@0@Z
?__abi_cast_Object_to_String@__abi_details@@YAP$AAVString@Platform@@_NP$AAVObject@3@@Z
?__abi_cast_String_to_Object@__abi_details@@YAP$AAVObject@Platform@@P$AAVString@3@@Z
?__abi_FailFast@@YAXXZ
?__abi_make_type_id@@YAP$AAVType@Platform@@ABU__abi_type_descriptor@@@Z
?__abi_ObjectToString@__abi_details@@YAP$AAVString@Platform@@P$AAVObject@3@_N@Z
?__abi_WinRTraiseAccessDeniedException@@YAXXZ
?__abi_WinRTraiseChangedStateException@@YAXXZ
?__abi_WinRTraiseClassNotRegisteredException@@YAXXZ
?__abi_WinRTraiseCOMException@@YAXJ@Z
?__abi_WinRTraiseDisconnectedException@@YAXXZ
?__abi_WinRTraiseFailureException@@YAXXZ
?__abi_WinRTraiseInvalidArgumentException@@YAXXZ
?__abi_WinRTraiseInvalidCastException@@YAXXZ
?__abi_WinRTraiseNotImplementedException@@YAXXZ
?__abi_WinRTraiseNullReferenceException@@YAXXZ
?__abi_WinRTraiseObjectDisposedException@@YAXXZ
?__abi_WinRTraiseOperationCanceledException@@YAXXZ
?__abi_WinRTraiseOutOfBoundsException@@YAXXZ
?__abi_WinRTraiseOutOfMemoryException@@YAXXZ
?__abi_WinRTraiseWrongThreadException@@YAXXZ
?__getActivationFactoryByHSTRING@@YAJPAUHSTRING__@@AAVGuid@Platform@@PAPAX@Z
?AlignedAllocate@Heap@Details@Platform@@SAPAXII@Z
?AlignedAllocateException@Heap@Details@Platform@@SAPAXII@Z
?AlignedFree@Heap@Details@Platform@@SAXPAX@Z
?AlignedFreeException@Heap@Details@Platform@@SAXPAX@Z
?Allocate@Heap@Details@Platform@@SAPAXI@Z
?AllocateException@Heap@Details@Platform@@SAPAXI@Z
?Compare@Duration@Xaml@UI@Windows@@SAHV1234@0@Z
?Contains@Rect@Foundation@Windows@@QAA_NVPoint@23@@Z
?CreateException@Exception@Platform@@SAP$AAV12@H@Z
?CreateException@Exception@Platform@@SAP$AAV12@HP$AAVString@2@@Z
?CreateValue@Details@Platform@@YAP$AAVObject@2@P$AAVType@2@PBX@Z
?EnableFactoryCache@@YAXXZ
?EnumerateAllocatedObjects@Heap@Details@Platform@@SAXP$AAVHeapEntryHandler@23@@Z
?Equals@Attribute@Metadata@Platform@@Q$AAA_NP$AAVObject@3@@Z
?Equals@Boolean@Platform@@QAA_NP$AAVObject@2@@Z
?Equals@char16@default@@QAA_NP$AAVObject@Platform@@@Z
?Equals@Delegate@Platform@@Q$AAA_NP$AAVObject@2@@Z
?Equals@Enum@Platform@@Q$AAA_NP$AAVObject@2@@Z
?Equals@Exception@Platform@@U$AAA_NP$AAVObject@2@@Z
?Equals@float32@default@@QAA_NP$AAVObject@Platform@@@Z
?Equals@float64@default@@QAA_NP$AAVObject@Platform@@@Z
?Equals@int16@default@@QAA_NP$AAVObject@Platform@@@Z
?Equals@int32@default@@QAA_NP$AAVObject@Platform@@@Z
?Equals@int64@default@@QAA_NP$AAVObject@Platform@@@Z
?Equals@int8@default@@QAA_NP$AAVObject@Platform@@@Z
?Equals@MTAThreadAttribute@Platform@@Q$AAA_NP$AAVObject@2@@Z
?Equals@Object@Platform@@Q$AAA_NP$AAV12@@Z
?Equals@OnePhaseConstructedAttribute@CompilerServices@Runtime@Platform@@Q$AAA_NP$AAVObject@4@@Z
?Equals@STAThreadAttribute@Platform@@Q$AAA_NP$AAVObject@2@@Z
?Equals@Type@Platform@@U$AAA_NP$AAVObject@2@@Z
?Equals@uint16@default@@QAA_NP$AAVObject@Platform@@@Z
?Equals@uint32@default@@QAA_NP$AAVObject@Platform@@@Z
?Equals@uint64@default@@QAA_NP$AAVObject@Platform@@@Z
?Equals@uint8@default@@QAA_NP$AAVObject@Platform@@@Z
?Equals@ValueType@Platform@@Q$AAA_NP$AAVObject@2@@Z
?EventSourceAdd@Details@Platform@@YA?AVEventRegistrationToken@Foundation@Windows@@PAPAXPAUEventLock@12@P$AAVDelegate@2@@Z
?EventSourceGetTargetArray@Details@Platform@@YAPAXPAXPAUEventLock@12@@Z
?EventSourceGetTargetArrayEvent@Details@Platform@@YAPAXPAXI@Z
?EventSourceGetTargetArraySize@Details@Platform@@YAIPAX@Z
?EventSourceInitialize@Details@Platform@@YAXPAPAX@Z
?EventSourceRemove@Details@Platform@@YAXPAPAXPAUEventLock@12@VEventRegistrationToken@Foundation@Windows@@@Z
?EventSourceUninitialize@Details@Platform@@YAXPAPAX@Z
?FlushFactoryCache@@YAXXZ
?Free@Heap@Details@Platform@@SAXPAX@Z
?FreeException@Heap@Details@Platform@@SAXPAX@Z
?get@Bottom@Rect@Foundation@Windows@@QAAMXZ
?get@BreakOnAllocationId@Heap@Details@Platform@@SAHXZ
?get@BreakOnFreeId@Heap@Details@Platform@@SAHXZ
?get@CurrentAllocationId@Heap@Details@Platform@@SAHXZ
?get@Empty@Rect@Foundation@Windows@@SA?AV234@XZ
?get@Empty@Size@Foundation@Windows@@SA?AV234@XZ
?get@FullName@Type@Platform@@Q$AAAP$AAVString@3@XZ
?get@HasInverse@Matrix3D@Media3D@Media@Xaml@UI@Windows@@QAA_NXZ
?get@Message@Exception@Platform@@Q$AAAP$AAVString@3@XZ
?get@ObjectCount@Heap@Details@Platform@@SAHXZ
?get@Right@Rect@Foundation@Windows@@QAAMXZ
?get@TrackingLevel@Heap@Details@Platform@@SA?AW4HeapAllocationTrackingLevel@34@XZ
?GetActivationFactory@Details@Platform@@YAJPAVModuleBase@1WRL@Microsoft@@PAUHSTRING__@@PAPAUIActivationFactory@@@Z
?GetActivationFactoryByPCWSTR@@YAJPAXAAVGuid@Platform@@PAPAX@Z
?GetCmdArguments@Details@Platform@@YAPAPA_WPAH@Z
?GetHashCode@Attribute@Metadata@Platform@@Q$AAAHXZ
?GetHashCode@Boolean@Platform@@QAAHXZ
?GetHashCode@char16@default@@QAAHXZ
?GetHashCode@Delegate@Platform@@Q$AAAHXZ
?GetHashCode@Enum@Platform@@Q$AAAHXZ
?GetHashCode@Exception@Platform@@U$AAAHXZ
?GetHashCode@float32@default@@QAAHXZ
?GetHashCode@float64@default@@QAAHXZ
?GetHashCode@Guid@Platform@@QAAHXZ
?GetHashCode@int16@default@@QAAHXZ
?GetHashCode@int32@default@@QAAHXZ
?GetHashCode@int64@default@@QAAHXZ
?GetHashCode@int8@default@@QAAHXZ
?GetHashCode@MTAThreadAttribute@Platform@@Q$AAAHXZ
?GetHashCode@Object@Platform@@Q$AAAHXZ
?GetHashCode@OnePhaseConstructedAttribute@CompilerServices@Runtime@Platform@@Q$AAAHXZ
?GetHashCode@STAThreadAttribute@Platform@@Q$AAAHXZ
?GetHashCode@Type@Platform@@U$AAAHXZ
?GetHashCode@uint16@default@@QAAHXZ
?GetHashCode@uint32@default@@QAAHXZ
?GetHashCode@uint64@default@@QAAHXZ
?GetHashCode@uint8@default@@QAAHXZ
?GetHashCode@ValueType@Platform@@Q$AAAHXZ
?GetIBoxArrayVtable@Details@Platform@@YAPAXPAX@Z
?GetIBoxVtable@Details@Platform@@YAPAXPAX@Z
?GetIidsFn@@YAJHPAKPBU__s_GUID@@PAPAVGuid@Platform@@@Z
?GetObjectContext@Details@Platform@@YAPAUIUnknown@@XZ
?GetProxyImpl@Details@Platform@@YAJPAUIUnknown@@ABU_GUID@@0PAPAU3@@Z
?GetType@Boolean@Platform@@QAAP$AAVType@2@XZ
?GetType@char16@default@@QAAP$AAVType@Platform@@XZ
?GetType@float32@default@@QAAP$AAVType@Platform@@XZ
?GetType@float64@default@@QAAP$AAVType@Platform@@XZ
?GetType@Guid@Platform@@QAAP$AAVType@2@XZ
?GetType@int16@default@@QAAP$AAVType@Platform@@XZ
?GetType@int32@default@@QAAP$AAVType@Platform@@XZ
?GetType@int64@default@@QAAP$AAVType@Platform@@XZ
?GetType@int8@default@@QAAP$AAVType@Platform@@XZ
?GetType@Object@Platform@@Q$AAAP$AAVType@2@XZ
?GetType@uint16@default@@QAAP$AAVType@Platform@@XZ
?GetType@uint32@default@@QAAP$AAVType@Platform@@XZ
?GetType@uint64@default@@QAAP$AAVType@Platform@@XZ
?GetType@uint8@default@@QAAP$AAVType@Platform@@XZ
?GetTypeCode@Type@Platform@@SA?AW4TypeCode@2@P$AAV12@@Z
?GetWeakReference@Details@Platform@@YAPAU__abi_IUnknown@@Q$ADVObject@2@@Z
?InitializeData@Details@Platform@@YAJH@Z
?Intersect@Rect@Foundation@Windows@@QAAXV123@@Z
?IntersectsWith@Rect@Foundation@Windows@@QAA_NV123@@Z
?Invert@Matrix3D@Media3D@Media@Xaml@UI@Windows@@QAAXXZ
?ReCreateException@Exception@Platform@@SAP$AAV12@H@Z
?ReCreateFromException@Details@Platform@@YAJP$AAVException@2@@Z
?ReferenceEquals@Object@Platform@@SA_NP$AAV12@0@Z
?ReferenceEquals@Object@Platform@@SA_NP$AAVString@2@0@Z
?RegisterFactories@Details@Platform@@YAP$AAVObject@2@PAPAVModuleBase@1WRL@Microsoft@@PAPAU__abi_Module@@P6AXXZ@Z
?ReleaseInContextImpl@Details@Platform@@YAJPAUIUnknown@@0@Z
?ResolveWeakReference@Details@Platform@@YAP$AAVObject@2@ABU_GUID@@PAPAU__abi_IUnknown@@@Z
?RunApplicationServer@Details@Platform@@YAXPAPAVModuleBase@1WRL@Microsoft@@PAPAU__abi_Module@@PB_W@Z
?RunServer@Details@Platform@@YAXPAPAVModuleBase@1WRL@Microsoft@@PAPAU__abi_Module@@PB_W@Z
?set@BreakOnAllocationId@Heap@Details@Platform@@SAXH@Z
?set@BreakOnFreeId@Heap@Details@Platform@@SAXH@Z
?set@TrackingLevel@Heap@Details@Platform@@SAXW4HeapAllocationTrackingLevel@34@@Z
?TerminateModule@Details@Platform@@YA_NPAVModuleBase@1WRL@Microsoft@@@Z
?ToInt32@IntPtr@Platform@@QAAHXZ
?ToString@Attribute@Metadata@Platform@@Q$AAAP$AAVString@3@XZ
?ToString@Boolean@Platform@@QAAP$AAVString@2@XZ
?ToString@char16@default@@QAAP$AAVString@Platform@@XZ
?ToString@Delegate@Platform@@Q$AAAP$AAVString@2@XZ
?ToString@Enum@Platform@@Q$AAAP$AAVString@2@XZ
?ToString@Exception@Platform@@U$AAAP$AAVString@2@XZ
?ToString@float32@default@@QAAP$AAVString@Platform@@XZ
?ToString@float64@default@@QAAP$AAVString@Platform@@XZ
?ToString@Guid@Platform@@QAAP$AAVString@2@XZ
?ToString@int16@default@@QAAP$AAVString@Platform@@XZ
?ToString@int32@default@@QAAP$AAVString@Platform@@XZ
?ToString@int64@default@@QAAP$AAVString@Platform@@XZ
?ToString@int8@default@@QAAP$AAVString@Platform@@XZ
?ToString@MTAThreadAttribute@Platform@@Q$AAAP$AAVString@2@XZ
?ToString@OnePhaseConstructedAttribute@CompilerServices@Runtime@Platform@@Q$AAAP$AAVString@4@XZ
?ToString@STAThreadAttribute@Platform@@Q$AAAP$AAVString@2@XZ
?ToString@Type@Platform@@U$AAAP$AAVString@2@XZ
?ToString@uint16@default@@QAAP$AAVString@Platform@@XZ
?ToString@uint32@default@@QAAP$AAVString@Platform@@XZ
?ToString@uint64@default@@QAAP$AAVString@Platform@@XZ
?ToString@uint8@default@@QAAP$AAVString@Platform@@XZ
?ToString@ValueType@Platform@@Q$AAAP$AAVString@2@XZ
?UninitializeData@Details@Platform@@YAXH@Z
?Union@Rect@Foundation@Windows@@QAAXV123@@Z
?Union@Rect@Foundation@Windows@@QAAXVPoint@23@@Z
?WriteLine@Console@Details@Platform@@SAXP$AAVObject@3@@Z
?WriteLine@Console@Details@Platform@@SAXP$AAVString@3@@Z
?WriteLine@Console@Details@Platform@@SAXXZ
