LIBRARY wincorlib.dll

EXPORTS
?<Dispose>@Exception@Platform@@UE$AAAXXZ
?<Dispose>@String@Platform@@UE$AAAXXZ
?<Dispose>@Type@Platform@@UE$AAAXXZ
??0AccessDeniedException@Platform@@QE$AAA@PE$AAVString@1@@Z
??0AccessDeniedException@Platform@@QE$AAA@XZ
??0Attribute@Metadata@Platform@@QE$AAA@XZ
??0Boolean@Platform@@QEAA@_N@Z
??0COMException@Platform@@QE$AAA@H@Z
??0COMException@Platform@@QE$AAA@HPE$AAVString@1@@Z
??0ChangedStateException@Platform@@QE$AAA@PE$AAVString@1@@Z
??0ChangedStateException@Platform@@QE$AAA@XZ
??0ClassNotRegisteredException@Platform@@QE$AAA@PE$AAVString@1@@Z
??0ClassNotRegisteredException@Platform@@QE$AAA@XZ
??0Delegate@Platform@@QE$AAA@XZ
??0DisconnectedException@Platform@@QE$AAA@PE$AAVString@1@@Z
??0DisconnectedException@Platform@@QE$AAA@XZ
??0Enum@Platform@@QE$AAA@XZ
??0Exception@Platform@@QE$AAA@H@Z
??0Exception@Platform@@QE$AAA@HPE$AAVString@1@@Z
??0FailureException@Platform@@QE$AAA@PE$AAVString@1@@Z
??0FailureException@Platform@@QE$AAA@XZ
??0GridLength@Xaml@UI@Windows@@QEAA@NW4GridUnitType@123@@Z
??0IntPtr@Platform@@QEAA@H@Z
??0IntPtr@Platform@@QEAA@PEAX@Z
??0InvalidArgumentException@Platform@@QE$AAA@PE$AAVString@1@@Z
??0InvalidArgumentException@Platform@@QE$AAA@XZ
??0InvalidCastException@Platform@@QE$AAA@PE$AAVString@1@@Z
??0InvalidCastException@Platform@@QE$AAA@XZ
??0MTAThreadAttribute@Platform@@QE$AAA@XZ
??0NotImplementedException@Platform@@QE$AAA@PE$AAVString@1@@Z
??0NotImplementedException@Platform@@QE$AAA@XZ
??0NullReferenceException@Platform@@QE$AAA@PE$AAVString@1@@Z
??0NullReferenceException@Platform@@QE$AAA@XZ
??0Object@Platform@@QE$AAA@XZ
??0ObjectDisposedException@Platform@@QE$AAA@PE$AAVString@1@@Z
??0ObjectDisposedException@Platform@@QE$AAA@XZ
??0OnePhaseConstructedAttribute@CompilerServices@Runtime@Platform@@QE$AAA@XZ
??0OperationCanceledException@Platform@@QE$AAA@PE$AAVString@1@@Z
??0OperationCanceledException@Platform@@QE$AAA@XZ
??0OutOfBoundsException@Platform@@QE$AAA@PE$AAVString@1@@Z
??0OutOfBoundsException@Platform@@QE$AAA@XZ
??0OutOfMemoryException@Platform@@QE$AAA@PE$AAVString@1@@Z
??0OutOfMemoryException@Platform@@QE$AAA@XZ
??0Rect@Foundation@Windows@@QEAA@VPoint@12@0@Z
??0Rect@Foundation@Windows@@QEAA@VPoint@12@VSize@12@@Z
??0RepeatBehavior@Animation@Media@Xaml@UI@Windows@@QEAA@N@Z
??0STAThreadAttribute@Platform@@QE$AAA@XZ
??0SizeT@Platform@@QEAA@H@Z
??0SizeT@Platform@@QEAA@PEAX@Z
??0Type@Platform@@QE$AAA@PE$AAVObject@1@@Z
??0Type@Platform@@QE$AAA@VIntPtr@1@@Z
??0Type@Platform@@QE$AAA@VTypeName@Interop@Xaml@UI@Windows@@@Z
??0ValueType@Platform@@QE$AAA@XZ
??0WrongThreadException@Platform@@QE$AAA@PE$AAVString@1@@Z
??0WrongThreadException@Platform@@QE$AAA@XZ
??0char16@default@@QEAA@_W@Z
??0float32@default@@QEAA@M@Z
??0float64@default@@QEAA@N@Z
??0int16@default@@QEAA@F@Z
??0int32@default@@QEAA@H@Z
??0int64@default@@QEAA@_J@Z
??0int8@default@@QEAA@C@Z
??0uint16@default@@QEAA@G@Z
??0uint32@default@@QEAA@I@Z
??0uint64@default@@QEAA@_K@Z
??0uint8@default@@QEAA@E@Z
??BIntPtr@Platform@@SA?AV01@H@Z
??BIntPtr@Platform@@SA?AV01@PEAX@Z
??BIntPtr@Platform@@SAPEAXV01@@Z
??BType@Platform@@SA?AVTypeName@Interop@Xaml@UI@Windows@@PE$AAV01@@Z
??BType@Platform@@SAPE$AAV01@VTypeName@Interop@Xaml@UI@Windows@@@Z
??DMatrix3D@Media3D@Media@Xaml@UI@Windows@@SA?AV012345@V012345@0@Z
??GDuration@Xaml@UI@Windows@@SA?AV0123@V0123@0@Z
??HDuration@Xaml@UI@Windows@@SA?AV0123@V0123@0@Z
??MDuration@Xaml@UI@Windows@@SA_NV0123@0@Z
??NDuration@Xaml@UI@Windows@@SA_NV0123@0@Z
??ODuration@Xaml@UI@Windows@@SA_NV0123@0@Z
??PDuration@Xaml@UI@Windows@@SA_NV0123@0@Z
?AlignedAllocate@Heap@Details@Platform@@SAPEAX_K00@Z
?AlignedAllocate@Heap@Details@Platform@@SAPEAX_K0@Z
?AlignedAllocateException@Heap@Details@Platform@@SAPEAX_K00@Z
?AlignedAllocateException@Heap@Details@Platform@@SAPEAX_K0@Z
?AlignedFree@Heap@Details@Platform@@SAXPEAX@Z
?AlignedFreeException@Heap@Details@Platform@@SAXPEAX@Z
?Allocate@Heap@Details@Platform@@SAPEAX_K0@Z
?Allocate@Heap@Details@Platform@@SAPEAX_K@Z
?AllocateException@Heap@Details@Platform@@SAPEAX_K0@Z
?AllocateException@Heap@Details@Platform@@SAPEAX_K@Z
?Compare@Duration@Xaml@UI@Windows@@SAHV1234@0@Z
?Contains@Rect@Foundation@Windows@@QEAA_NVPoint@23@@Z
?CreateException@Exception@Platform@@SAPE$AAV12@H@Z
?CreateException@Exception@Platform@@SAPE$AAV12@HPE$AAVString@2@@Z
?CreateValue@Details@Platform@@YAPE$AAVObject@2@W4TypeCode@2@PEBX@Z
?EnableFactoryCache@@YAXXZ
?EnumerateAllocatedObjects@Heap@Details@Platform@@SAXPE$AAVHeapEntryHandler@23@@Z
?Equals@Attribute@Metadata@Platform@@QE$AAA_NPE$AAVObject@3@@Z
?Equals@Boolean@Platform@@QEAA_NPE$AAVObject@2@@Z
?Equals@Delegate@Platform@@QE$AAA_NPE$AAVObject@2@@Z
?Equals@Enum@Platform@@QE$AAA_NPE$AAVObject@2@@Z
?Equals@Exception@Platform@@UE$AAA_NPE$AAVObject@2@@Z
?Equals@MTAThreadAttribute@Platform@@QE$AAA_NPE$AAVObject@2@@Z
?Equals@Object@Platform@@QE$AAA_NPE$AAV12@@Z
?Equals@OnePhaseConstructedAttribute@CompilerServices@Runtime@Platform@@QE$AAA_NPE$AAVObject@4@@Z
?Equals@STAThreadAttribute@Platform@@QE$AAA_NPE$AAVObject@2@@Z
?Equals@Type@Platform@@UE$AAA_NPE$AAVObject@2@@Z
?Equals@ValueType@Platform@@QE$AAA_NPE$AAVObject@2@@Z
?Equals@char16@default@@QEAA_NPE$AAVObject@Platform@@@Z
?Equals@float32@default@@QEAA_NPE$AAVObject@Platform@@@Z
?Equals@float64@default@@QEAA_NPE$AAVObject@Platform@@@Z
?Equals@int16@default@@QEAA_NPE$AAVObject@Platform@@@Z
?Equals@int32@default@@QEAA_NPE$AAVObject@Platform@@@Z
?Equals@int64@default@@QEAA_NPE$AAVObject@Platform@@@Z
?Equals@int8@default@@QEAA_NPE$AAVObject@Platform@@@Z
?Equals@uint16@default@@QEAA_NPE$AAVObject@Platform@@@Z
?Equals@uint32@default@@QEAA_NPE$AAVObject@Platform@@@Z
?Equals@uint64@default@@QEAA_NPE$AAVObject@Platform@@@Z
?Equals@uint8@default@@QEAA_NPE$AAVObject@Platform@@@Z
?EventSourceAdd@Details@Platform@@YA?AVEventRegistrationToken@Foundation@Windows@@PEAPEAXPEAUEventLock@12@PE$AAVDelegate@2@@Z
?EventSourceGetTargetArray@Details@Platform@@YAPEAXPEAXPEAUEventLock@12@@Z
?EventSourceGetTargetArrayEvent@Details@Platform@@YAPEAXPEAXIPEBXPEA_J@Z
?EventSourceGetTargetArraySize@Details@Platform@@YAIPEAX@Z
?EventSourceInitialize@Details@Platform@@YAXPEAPEAX@Z
?EventSourceRemove@Details@Platform@@YAXPEAPEAXPEAUEventLock@12@VEventRegistrationToken@Foundation@Windows@@@Z
?EventSourceUninitialize@Details@Platform@@YAXPEAPEAX@Z
?FlushFactoryCache@@YAXXZ
?Free@Heap@Details@Platform@@SAXPEAX@Z
?FreeException@Heap@Details@Platform@@SAXPEAX@Z
?GetActivationFactory@Details@Platform@@YAJPEAVModuleBase@1WRL@Microsoft@@PEAUHSTRING__@@PEAPEAUIActivationFactory@@@Z
?GetActivationFactoryByPCWSTR@@YAJPEAXAEAVGuid@Platform@@PEAPEAX@Z
?GetCmdArguments@Details@Platform@@YAPEAPEA_WPEAH@Z
?GetHashCode@Attribute@Metadata@Platform@@QE$AAAHXZ
?GetHashCode@Boolean@Platform@@QEAAHXZ
?GetHashCode@Delegate@Platform@@QE$AAAHXZ
?GetHashCode@Enum@Platform@@QE$AAAHXZ
?GetHashCode@Exception@Platform@@UE$AAAHXZ
?GetHashCode@Guid@Platform@@QEAAHXZ
?GetHashCode@MTAThreadAttribute@Platform@@QE$AAAHXZ
?GetHashCode@Object@Platform@@QE$AAAHXZ
?GetHashCode@OnePhaseConstructedAttribute@CompilerServices@Runtime@Platform@@QE$AAAHXZ
?GetHashCode@STAThreadAttribute@Platform@@QE$AAAHXZ
?GetHashCode@Type@Platform@@UE$AAAHXZ
?GetHashCode@ValueType@Platform@@QE$AAAHXZ
?GetHashCode@char16@default@@QEAAHXZ
?GetHashCode@float32@default@@QEAAHXZ
?GetHashCode@float64@default@@QEAAHXZ
?GetHashCode@int16@default@@QEAAHXZ
?GetHashCode@int32@default@@QEAAHXZ
?GetHashCode@int64@default@@QEAAHXZ
?GetHashCode@int8@default@@QEAAHXZ
?GetHashCode@uint16@default@@QEAAHXZ
?GetHashCode@uint32@default@@QEAAHXZ
?GetHashCode@uint64@default@@QEAAHXZ
?GetHashCode@uint8@default@@QEAAHXZ
?GetIBoxArrayVtable@Details@Platform@@YAPEAXPEAX@Z
?GetIBoxVtable@Details@Platform@@YAPEAXPEAX@Z
?GetIidsFn@@YAJHPEAKPEBU__s_GUID@@PEAPEAVGuid@Platform@@@Z
?GetObjectContext@Details@Platform@@YAPEAUIUnknown@@XZ
?GetProxyImpl@Details@Platform@@YAJPEAUIUnknown@@AEBU_GUID@@0PEAPEAU3@@Z
?GetType@Boolean@Platform@@QEAAPE$AAVType@2@XZ
?GetType@Guid@Platform@@QEAAPE$AAVType@2@XZ
?GetType@Object@Platform@@QE$AAAPE$AAVType@2@XZ
?GetType@char16@default@@QEAAPE$AAVType@Platform@@XZ
?GetType@float32@default@@QEAAPE$AAVType@Platform@@XZ
?GetType@float64@default@@QEAAPE$AAVType@Platform@@XZ
?GetType@int16@default@@QEAAPE$AAVType@Platform@@XZ
?GetType@int32@default@@QEAAPE$AAVType@Platform@@XZ
?GetType@int64@default@@QEAAPE$AAVType@Platform@@XZ
?GetType@int8@default@@QEAAPE$AAVType@Platform@@XZ
?GetType@uint16@default@@QEAAPE$AAVType@Platform@@XZ
?GetType@uint32@default@@QEAAPE$AAVType@Platform@@XZ
?GetType@uint64@default@@QEAAPE$AAVType@Platform@@XZ
?GetType@uint8@default@@QEAAPE$AAVType@Platform@@XZ
?GetTypeCode@Type@Platform@@SA?AW4TypeCode@2@PE$AAV12@@Z
?GetWeakReference@Details@Platform@@YAPEAU__abi_IUnknown@@QE$ADVObject@2@@Z
?InitControlBlock@ControlBlock@Details@Platform@@AEAAXPEAX_N11@Z
?InitializeData@Details@Platform@@YAJH@Z
?Intersect@Rect@Foundation@Windows@@QEAAXV123@@Z
?IntersectsWith@Rect@Foundation@Windows@@QEAA_NV123@@Z
?Invert@Matrix3D@Media3D@Media@Xaml@UI@Windows@@QEAAXXZ
?ReCreateException@Exception@Platform@@SAPE$AAV12@H@Z
?ReCreateFromException@Details@Platform@@YAJPE$AAVException@2@@Z
?ReferenceEquals@Object@Platform@@SA_NPE$AAV12@0@Z
?ReferenceEquals@Object@Platform@@SA_NPE$AAVString@2@0@Z
?RegisterFactories@Details@Platform@@YAPE$AAVObject@2@PEAPEAVModuleBase@1WRL@Microsoft@@PEAPEAU__abi_Module@@P6AXXZ@Z
?ReleaseInContextImpl@Details@Platform@@YAJPEAUIUnknown@@0@Z
?ReleaseTarget@ControlBlock@Details@Platform@@AEAAXXZ
?ResolveWeakReference@Details@Platform@@YAPE$AAVObject@2@AEBU_GUID@@PEAPEAU__abi_IUnknown@@@Z
?RunApplicationServer@Details@Platform@@YAXPEAPEAVModuleBase@1WRL@Microsoft@@PEAPEAU__abi_Module@@PEB_W@Z
?RunServer@Details@Platform@@YAXPEAPEAVModuleBase@1WRL@Microsoft@@PEAPEAU__abi_Module@@PEB_W@Z
?TerminateModule@Details@Platform@@YA_NPEAVModuleBase@1WRL@Microsoft@@@Z
?ToInt32@IntPtr@Platform@@QEAAHXZ
?ToString@Attribute@Metadata@Platform@@QE$AAAPE$AAVString@3@XZ
?ToString@Boolean@Platform@@QEAAPE$AAVString@2@XZ
?ToString@Delegate@Platform@@QE$AAAPE$AAVString@2@XZ
?ToString@Enum@Platform@@QE$AAAPE$AAVString@2@XZ
?ToString@Exception@Platform@@UE$AAAPE$AAVString@2@XZ
?ToString@Guid@Platform@@QEAAPE$AAVString@2@XZ
?ToString@MTAThreadAttribute@Platform@@QE$AAAPE$AAVString@2@XZ
?ToString@OnePhaseConstructedAttribute@CompilerServices@Runtime@Platform@@QE$AAAPE$AAVString@4@XZ
?ToString@STAThreadAttribute@Platform@@QE$AAAPE$AAVString@2@XZ
?ToString@Type@Platform@@UE$AAAPE$AAVString@2@XZ
?ToString@ValueType@Platform@@QE$AAAPE$AAVString@2@XZ
?ToString@char16@default@@QEAAPE$AAVString@Platform@@XZ
?ToString@float32@default@@QEAAPE$AAVString@Platform@@XZ
?ToString@float64@default@@QEAAPE$AAVString@Platform@@XZ
?ToString@int16@default@@QEAAPE$AAVString@Platform@@XZ
?ToString@int32@default@@QEAAPE$AAVString@Platform@@XZ
?ToString@int64@default@@QEAAPE$AAVString@Platform@@XZ
?ToString@int8@default@@QEAAPE$AAVString@Platform@@XZ
?ToString@uint16@default@@QEAAPE$AAVString@Platform@@XZ
?ToString@uint32@default@@QEAAPE$AAVString@Platform@@XZ
?ToString@uint64@default@@QEAAPE$AAVString@Platform@@XZ
?ToString@uint8@default@@QEAAPE$AAVString@Platform@@XZ
?UninitializeData@Details@Platform@@YAXH@Z
?Union@Rect@Foundation@Windows@@QEAAXV123@@Z
?Union@Rect@Foundation@Windows@@QEAAXVPoint@23@@Z
?WriteLine@Console@Details@Platform@@SAXPE$AAVObject@3@@Z
?WriteLine@Console@Details@Platform@@SAXPE$AAVString@3@@Z
?WriteLine@Console@Details@Platform@@SAXXZ
?__abi_FailFast@@YAXXZ
?__abi_ObjectToString@__abi_details@@YAPE$AAVString@Platform@@PE$AAVObject@3@_N@Z
?__abi_Resolve@ControlBlock@Details@Platform@@UEAAJAEAVGuid@3@PEAPEAU__abi_IInspectable@@@Z
?__abi_WinRTraiseAccessDeniedException@@YAXXZ
?__abi_WinRTraiseCOMException@@YAXJ@Z
?__abi_WinRTraiseChangedStateException@@YAXXZ
?__abi_WinRTraiseClassNotRegisteredException@@YAXXZ
?__abi_WinRTraiseDisconnectedException@@YAXXZ
?__abi_WinRTraiseFailureException@@YAXXZ
?__abi_WinRTraiseInvalidArgumentException@@YAXXZ
?__abi_WinRTraiseInvalidCastException@@YAXXZ
?__abi_WinRTraiseNotImplementedException@@YAXXZ
?__abi_WinRTraiseNullReferenceException@@YAXXZ
?__abi_WinRTraiseObjectDisposedException@@YAXXZ
?__abi_WinRTraiseOperationCanceledException@@YAXXZ
?__abi_WinRTraiseOutOfBoundsException@@YAXXZ
?__abi_WinRTraiseOutOfMemoryException@@YAXXZ
?__abi_WinRTraiseWrongThreadException@@YAXXZ
?__abi_cast_Object_to_String@__abi_details@@YAPE$AAVString@Platform@@_NPE$AAVObject@3@@Z
?__abi_cast_String_to_Object@__abi_details@@YAPE$AAVObject@Platform@@PE$AAVString@3@@Z
?__abi_make_type_id@@YAPE$AAVType@Platform@@AEBU__abi_type_descriptor@@@Z
?__abi_translateCurrentException@@YAJ_N@Z
?__getActivationFactoryByHSTRING@@YAJPEAUHSTRING__@@AEAVGuid@Platform@@PEAPEAX@Z
?get@Bottom@Rect@Foundation@Windows@@QEAAMXZ
?get@BreakOnAllocationId@Heap@Details@Platform@@SAHXZ
?get@BreakOnFreeId@Heap@Details@Platform@@SAHXZ
?get@CurrentAllocationId@Heap@Details@Platform@@SAHXZ
?get@Empty@Rect@Foundation@Windows@@SA?AV234@XZ
?get@Empty@Size@Foundation@Windows@@SA?AV234@XZ
?get@FullName@Type@Platform@@QE$AAAPE$AAVString@3@XZ
?get@HasInverse@Matrix3D@Media3D@Media@Xaml@UI@Windows@@QEAA_NXZ
?get@Message@Exception@Platform@@QE$AAAPE$AAVString@3@XZ
?get@ObjectCount@Heap@Details@Platform@@SAHXZ
?get@Right@Rect@Foundation@Windows@@QEAAMXZ
?get@TrackingLevel@Heap@Details@Platform@@SA?AW4HeapAllocationTrackingLevel@34@XZ
?set@BreakOnAllocationId@Heap@Details@Platform@@SAXH@Z
?set@BreakOnFreeId@Heap@Details@Platform@@SAXH@Z
?set@TrackingLevel@Heap@Details@Platform@@SAXW4HeapAllocationTrackingLevel@34@@Z
